target datalayout = "e-m:e-p270:32:32-p271:32:32-p272:64:64-i64:64-i128:128-f80:128-n8:16:32:64-S128"
target triple = "x86_64-pc-linux-gnu"

%struct.Vec_Int_t_ = type { i32, i32, ptr }
%struct.Nf_Man_t_ = type { ptr, ptr, ptr, ptr, ptr, ptr, i32, ptr, %struct.Vec_Ptr_t_, %struct.Vec_Int_t_, %struct.Vec_Int_t_, %struct.Vec_Flt_t_, %struct.Vec_Int_t_, %struct.Vec_Flt_t_, %struct.Vec_Int_t_, %struct.Vec_Int_t_, i32, i32, i32, i32, i32, i64, float, i64, [6 x double], i32 }
%struct.Vec_Ptr_t_ = type { i32, i32, ptr }
%struct.Vec_Flt_t_ = type { i32, i32, ptr }

; Function Attrs: inlinehint nounwind uwtable
define internal ptr @Vec_PtrEntry(ptr noundef %0, i32 noundef %1) #2 {
  %3 = alloca ptr, align 8
  %4 = alloca i32, align 4
  store ptr %0, ptr %3, align 8, !tbaa !119
  store i32 %1, ptr %4, align 4, !tbaa !17
  %5 = load ptr, ptr %3, align 8, !tbaa !119
  %6 = getelementptr inbounds nuw %struct.Vec_Ptr_t_, ptr %5, i32 0, i32 2
  %7 = load ptr, ptr %6, align 8, !tbaa !121
  %8 = load i32, ptr %4, align 4, !tbaa !17
  %9 = sext i32 %8 to i64
  %10 = getelementptr inbounds ptr, ptr %7, i64 %9
  %11 = load ptr, ptr %10, align 8, !tbaa !135
  ret ptr %11
}

; Function Attrs: inlinehint nounwind uwtable
define internal i32 @Vec_PtrSize(ptr noundef %0) #2 {
  %2 = alloca ptr, align 8
  store ptr %0, ptr %2, align 8, !tbaa !119
  %3 = load ptr, ptr %2, align 8, !tbaa !119
  %4 = getelementptr inbounds nuw %struct.Vec_Ptr_t_, ptr %3, i32 0, i32 1
  %5 = load i32, ptr %4, align 4, !tbaa !190
  ret i32 %5
}

; Function Attrs: inlinehint nounwind uwtable
define internal void @Vec_PtrFreeData(ptr noundef %0) #2 {
  %2 = alloca ptr, align 8
  %3 = alloca ptr, align 8
  %4 = alloca i32, align 4
  %5 = alloca i32, align 4
  store ptr %0, ptr %2, align 8, !tbaa !119
  call void @llvm.lifetime.start.p0(i64 8, ptr %3) #13
  call void @llvm.lifetime.start.p0(i64 4, ptr %4) #13
  %6 = load ptr, ptr %2, align 8, !tbaa !119
  %7 = icmp eq ptr %6, null
  br i1 %7, label %8, label %9

8:                                                ; preds = %1
  store i32 1, ptr %5, align 4
  br label %39

9:                                                ; preds = %1
  store i32 0, ptr %4, align 4, !tbaa !17
  br label %10

10:                                               ; preds = %35, %9
  %11 = load i32, ptr %4, align 4, !tbaa !17
  %12 = load ptr, ptr %2, align 8, !tbaa !119
  %13 = call i32 @Vec_PtrSize(ptr noundef %12)
  %14 = icmp slt i32 %11, %13
  br i1 %14, label %15, label %19

15:                                               ; preds = %10
  %16 = load ptr, ptr %2, align 8, !tbaa !119
  %17 = load i32, ptr %4, align 4, !tbaa !17
  %18 = call ptr @Vec_PtrEntry(ptr noundef %16, i32 noundef %17)
  store ptr %18, ptr %3, align 8, !tbaa !135
  br label %19

19:                                               ; preds = %15, %10
  %20 = phi i1 [ false, %10 ], [ true, %15 ]
  br i1 %20, label %21, label %38

21:                                               ; preds = %19
  %22 = load ptr, ptr %3, align 8, !tbaa !135
  %23 = icmp ne ptr %22, inttoptr (i64 1 to ptr)
  br i1 %23, label %24, label %34

24:                                               ; preds = %21
  %25 = load ptr, ptr %3, align 8, !tbaa !135
  %26 = icmp ne ptr %25, inttoptr (i64 2 to ptr)
  br i1 %26, label %27, label %34

27:                                               ; preds = %24
  %28 = load ptr, ptr %3, align 8, !tbaa !135
  %29 = icmp ne ptr %28, null
  br i1 %29, label %30, label %32

30:                                               ; preds = %27
  %31 = load ptr, ptr %3, align 8, !tbaa !135
  call void @free(ptr noundef %31) #13
  store ptr null, ptr %3, align 8, !tbaa !135
  br label %33

32:                                               ; preds = %27
  br label %33

33:                                               ; preds = %32, %30
  br label %34

34:                                               ; preds = %33, %24, %21
  br label %35

35:                                               ; preds = %34
  %36 = load i32, ptr %4, align 4, !tbaa !17
  %37 = add nsw i32 %36, 1
  store i32 %37, ptr %4, align 4, !tbaa !17
  br label %10, !llvm.loop !136

38:                                               ; preds = %19
  store i32 0, ptr %5, align 4
  br label %39

39:                                               ; preds = %38, %8
  call void @llvm.lifetime.end.p0(i64 4, ptr %4) #13
  call void @llvm.lifetime.end.p0(i64 8, ptr %3) #13
  %40 = load i32, ptr %5, align 4
  switch i32 %40, label %42 [
    i32 0, label %41
    i32 1, label %41
  ]

41:                                               ; preds = %39, %39
  ret void

42:                                               ; preds = %39
  unreachable
}

; Function Attrs: nounwind uwtable
define void @Nf_StoDelete(ptr noundef %0) #0 {
  %2 = alloca ptr, align 8
  store ptr %0, ptr %2, align 8, !tbaa !61
  %3 = load ptr, ptr %2, align 8, !tbaa !61
  %4 = getelementptr inbounds nuw %struct.Nf_Man_t_, ptr %3, i32 0, i32 8
  call void @Vec_PtrFreeData(ptr noundef %4)
  %5 = load ptr, ptr %2, align 8, !tbaa !61
  %6 = getelementptr inbounds nuw %struct.Nf_Man_t_, ptr %5, i32 0, i32 8
  %7 = getelementptr inbounds nuw %struct.Vec_Ptr_t_, ptr %6, i32 0, i32 2
  %8 = load ptr, ptr %7, align 8, !tbaa !127
  %9 = icmp ne ptr %8, null
  br i1 %9, label %10, label %18

10:                                               ; preds = %1
  %11 = load ptr, ptr %2, align 8, !tbaa !61
  %12 = getelementptr inbounds nuw %struct.Nf_Man_t_, ptr %11, i32 0, i32 8
  %13 = getelementptr inbounds nuw %struct.Vec_Ptr_t_, ptr %12, i32 0, i32 2
  %14 = load ptr, ptr %13, align 8, !tbaa !127
  call void @free(ptr noundef %14) #13
  %15 = load ptr, ptr %2, align 8, !tbaa !61
  %16 = getelementptr inbounds nuw %struct.Nf_Man_t_, ptr %15, i32 0, i32 8
  %17 = getelementptr inbounds nuw %struct.Vec_Ptr_t_, ptr %16, i32 0, i32 2
  store ptr null, ptr %17, align 8, !tbaa !127
  br label %19

18:                                               ; preds = %1
  br label %19

19:                                               ; preds = %18, %10
  %20 = load ptr, ptr %2, align 8, !tbaa !61
  %21 = getelementptr inbounds nuw %struct.Nf_Man_t_, ptr %20, i32 0, i32 10
  %22 = getelementptr inbounds nuw %struct.Vec_Int_t_, ptr %21, i32 0, i32 2
  %23 = load ptr, ptr %22, align 8, !tbaa !128
  %24 = icmp ne ptr %23, null
  br i1 %24, label %25, label %33

25:                                               ; preds = %19
  %26 = load ptr, ptr %2, align 8, !tbaa !61
  %27 = getelementptr inbounds nuw %struct.Nf_Man_t_, ptr %26, i32 0, i32 10
  %28 = getelementptr inbounds nuw %struct.Vec_Int_t_, ptr %27, i32 0, i32 2
  %29 = load ptr, ptr %28, align 8, !tbaa !128
  call void @free(ptr noundef %29) #13
  %30 = load ptr, ptr %2, align 8, !tbaa !61
  %31 = getelementptr inbounds nuw %struct.Nf_Man_t_, ptr %30, i32 0, i32 10
  %32 = getelementptr inbounds nuw %struct.Vec_Int_t_, ptr %31, i32 0, i32 2
  store ptr null, ptr %32, align 8, !tbaa !128
  br label %34

33:                                               ; preds = %19
  br label %34

34:                                               ; preds = %33, %25
  %35 = load ptr, ptr %2, align 8, !tbaa !61
  %36 = getelementptr inbounds nuw %struct.Nf_Man_t_, ptr %35, i32 0, i32 11
  %37 = getelementptr inbounds nuw %struct.Vec_Flt_t_, ptr %36, i32 0, i32 2
  %38 = load ptr, ptr %37, align 8, !tbaa !129
  %39 = icmp ne ptr %38, null
  br i1 %39, label %40, label %48

40:                                               ; preds = %34
  %41 = load ptr, ptr %2, align 8, !tbaa !61
  %42 = getelementptr inbounds nuw %struct.Nf_Man_t_, ptr %41, i32 0, i32 11
  %43 = getelementptr inbounds nuw %struct.Vec_Flt_t_, ptr %42, i32 0, i32 2
  %44 = load ptr, ptr %43, align 8, !tbaa !129
  call void @free(ptr noundef %44) #13
  %45 = load ptr, ptr %2, align 8, !tbaa !61
  %46 = getelementptr inbounds nuw %struct.Nf_Man_t_, ptr %45, i32 0, i32 11
  %47 = getelementptr inbounds nuw %struct.Vec_Flt_t_, ptr %46, i32 0, i32 2
  store ptr null, ptr %47, align 8, !tbaa !129
  br label %49

48:                                               ; preds = %34
  br label %49

49:                                               ; preds = %48, %40
  %50 = load ptr, ptr %2, align 8, !tbaa !61
  %51 = getelementptr inbounds nuw %struct.Nf_Man_t_, ptr %50, i32 0, i32 12
  %52 = getelementptr inbounds nuw %struct.Vec_Int_t_, ptr %51, i32 0, i32 2
  %53 = load ptr, ptr %52, align 8, !tbaa !130
  %54 = icmp ne ptr %53, null
  br i1 %54, label %55, label %63

55:                                               ; preds = %49
  %56 = load ptr, ptr %2, align 8, !tbaa !61
  %57 = getelementptr inbounds nuw %struct.Nf_Man_t_, ptr %56, i32 0, i32 12
  %58 = getelementptr inbounds nuw %struct.Vec_Int_t_, ptr %57, i32 0, i32 2
  %59 = load ptr, ptr %58, align 8, !tbaa !130
  call void @free(ptr noundef %59) #13
  %60 = load ptr, ptr %2, align 8, !tbaa !61
  %61 = getelementptr inbounds nuw %struct.Nf_Man_t_, ptr %60, i32 0, i32 12
  %62 = getelementptr inbounds nuw %struct.Vec_Int_t_, ptr %61, i32 0, i32 2
  store ptr null, ptr %62, align 8, !tbaa !130
  br label %64

63:                                               ; preds = %49
  br label %64

64:                                               ; preds = %63, %55
  %65 = load ptr, ptr %2, align 8, !tbaa !61
  %66 = getelementptr inbounds nuw %struct.Nf_Man_t_, ptr %65, i32 0, i32 9
  %67 = getelementptr inbounds nuw %struct.Vec_Int_t_, ptr %66, i32 0, i32 2
  %68 = load ptr, ptr %67, align 8, !tbaa !131
  %69 = icmp ne ptr %68, null
  br i1 %69, label %70, label %78

70:                                               ; preds = %64
  %71 = load ptr, ptr %2, align 8, !tbaa !61
  %72 = getelementptr inbounds nuw %struct.Nf_Man_t_, ptr %71, i32 0, i32 9
  %73 = getelementptr inbounds nuw %struct.Vec_Int_t_, ptr %72, i32 0, i32 2
  %74 = load ptr, ptr %73, align 8, !tbaa !131
  call void @free(ptr noundef %74) #13
  %75 = load ptr, ptr %2, align 8, !tbaa !61
  %76 = getelementptr inbounds nuw %struct.Nf_Man_t_, ptr %75, i32 0, i32 9
  %77 = getelementptr inbounds nuw %struct.Vec_Int_t_, ptr %76, i32 0, i32 2
  store ptr null, ptr %77, align 8, !tbaa !131
  br label %79

78:                                               ; preds = %64
  br label %79

79:                                               ; preds = %78, %70
  %80 = load ptr, ptr %2, align 8, !tbaa !61
  %81 = getelementptr inbounds nuw %struct.Nf_Man_t_, ptr %80, i32 0, i32 13
  %82 = getelementptr inbounds nuw %struct.Vec_Flt_t_, ptr %81, i32 0, i32 2
  %83 = load ptr, ptr %82, align 8, !tbaa !132
  %84 = icmp ne ptr %83, null
  br i1 %84, label %85, label %93

85:                                               ; preds = %79
  %86 = load ptr, ptr %2, align 8, !tbaa !61
  %87 = getelementptr inbounds nuw %struct.Nf_Man_t_, ptr %86, i32 0, i32 13
  %88 = getelementptr inbounds nuw %struct.Vec_Flt_t_, ptr %87, i32 0, i32 2
  %89 = load ptr, ptr %88, align 8, !tbaa !132
  call void @free(ptr noundef %89) #13
  %90 = load ptr, ptr %2, align 8, !tbaa !61
  %91 = getelementptr inbounds nuw %struct.Nf_Man_t_, ptr %90, i32 0, i32 13
  %92 = getelementptr inbounds nuw %struct.Vec_Flt_t_, ptr %91, i32 0, i32 2
  store ptr null, ptr %92, align 8, !tbaa !132
  br label %94

93:                                               ; preds = %79
  br label %94

94:                                               ; preds = %93, %85
  %95 = load ptr, ptr %2, align 8, !tbaa !61
  %96 = getelementptr inbounds nuw %struct.Nf_Man_t_, ptr %95, i32 0, i32 14
  %97 = getelementptr inbounds nuw %struct.Vec_Int_t_, ptr %96, i32 0, i32 2
  %98 = load ptr, ptr %97, align 8, !tbaa !133
  %99 = icmp ne ptr %98, null
  br i1 %99, label %100, label %108

100:                                              ; preds = %94
  %101 = load ptr, ptr %2, align 8, !tbaa !61
  %102 = getelementptr inbounds nuw %struct.Nf_Man_t_, ptr %101, i32 0, i32 14
  %103 = getelementptr inbounds nuw %struct.Vec_Int_t_, ptr %102, i32 0, i32 2
  %104 = load ptr, ptr %103, align 8, !tbaa !133
  call void @free(ptr noundef %104) #13
  %105 = load ptr, ptr %2, align 8, !tbaa !61
  %106 = getelementptr inbounds nuw %struct.Nf_Man_t_, ptr %105, i32 0, i32 14
  %107 = getelementptr inbounds nuw %struct.Vec_Int_t_, ptr %106, i32 0, i32 2
  store ptr null, ptr %107, align 8, !tbaa !133
  br label %109

108:                                              ; preds = %94
  br label %109

109:                                              ; preds = %108, %100
  %110 = load ptr, ptr %2, align 8, !tbaa !61
  %111 = getelementptr inbounds nuw %struct.Nf_Man_t_, ptr %110, i32 0, i32 15
  %112 = getelementptr inbounds nuw %struct.Vec_Int_t_, ptr %111, i32 0, i32 2
  %113 = load ptr, ptr %112, align 8, !tbaa !134
  %114 = icmp ne ptr %113, null
  br i1 %114, label %115, label %123

115:                                              ; preds = %109
  %116 = load ptr, ptr %2, align 8, !tbaa !61
  %117 = getelementptr inbounds nuw %struct.Nf_Man_t_, ptr %116, i32 0, i32 15
  %118 = getelementptr inbounds nuw %struct.Vec_Int_t_, ptr %117, i32 0, i32 2
  %119 = load ptr, ptr %118, align 8, !tbaa !134
  call void @free(ptr noundef %119) #13
  %120 = load ptr, ptr %2, align 8, !tbaa !61
  %121 = getelementptr inbounds nuw %struct.Nf_Man_t_, ptr %120, i32 0, i32 15
  %122 = getelementptr inbounds nuw %struct.Vec_Int_t_, ptr %121, i32 0, i32 2
  store ptr null, ptr %122, align 8, !tbaa !134
  br label %124

123:                                              ; preds = %109
  br label %124

124:                                              ; preds = %123, %115
  %125 = load ptr, ptr %2, align 8, !tbaa !61
  %126 = getelementptr inbounds nuw %struct.Nf_Man_t_, ptr %125, i32 0, i32 7
  %127 = load ptr, ptr %126, align 8, !tbaa !104
  %128 = icmp ne ptr %127, null
  br i1 %128, label %129, label %135

129:                                              ; preds = %124
  %130 = load ptr, ptr %2, align 8, !tbaa !61
  %131 = getelementptr inbounds nuw %struct.Nf_Man_t_, ptr %130, i32 0, i32 7
  %132 = load ptr, ptr %131, align 8, !tbaa !104
  call void @free(ptr noundef %132) #13
  %133 = load ptr, ptr %2, align 8, !tbaa !61
  %134 = getelementptr inbounds nuw %struct.Nf_Man_t_, ptr %133, i32 0, i32 7
  store ptr null, ptr %134, align 8, !tbaa !104
  br label %136

135:                                              ; preds = %124
  br label %136

136:                                              ; preds = %135, %129
  %137 = load ptr, ptr %2, align 8, !tbaa !61
  %138 = icmp ne ptr %137, null
  br i1 %138, label %139, label %141

139:                                              ; preds = %136
  %140 = load ptr, ptr %2, align 8, !tbaa !61
  call void @free(ptr noundef %140) #13
  store ptr null, ptr %2, align 8, !tbaa !61
  br label %142

141:                                              ; preds = %136
  br label %142

142:                                              ; preds = %141, %139
  ret void
}