; Function Attrs: nounwind uwtable
define void @Nf_StoDelete(ptr noundef captures(none) %0) local_unnamed_addr #2 {
  %2 = getelementptr i8, ptr %0, i64 68
  %.val15.i = load i32, ptr %2, align 4, !tbaa !123
  %3 = icmp sgt i32 %.val15.i, 0
  br i1 %3, label %.lr.ph.i, label %Vec_PtrFreeData.exit

.lr.ph.i:                                         ; preds = %1
  %4 = getelementptr i8, ptr %0, i64 72
  br label %5

5:                                                ; preds = %9, %.lr.ph.i
  %.val18.i = phi i32 [ %.val15.i, %.lr.ph.i ], [ %.val.i, %9 ]
  %indvars.iv.i = phi i64 [ 0, %.lr.ph.i ], [ %indvars.iv.next.i, %9 ]
  %.val14.i = load ptr, ptr %4, align 8, !tbaa !108
  %6 = getelementptr inbounds nuw ptr, ptr %.val14.i, i64 %indvars.iv.i
  %7 = load ptr, ptr %6, align 8, !tbaa !124
  %switch.i = icmp ult ptr %7, inttoptr (i64 3 to ptr)
  br i1 %switch.i, label %9, label %8

8:                                                ; preds = %5
  tail call void @free(ptr noundef %7) #26
  %.val.pre.i = load i32, ptr %2, align 4, !tbaa !123
  br label %9

9:                                                ; preds = %8, %5
  %.val.i = phi i32 [ %.val18.i, %5 ], [ %.val.pre.i, %8 ]
  %indvars.iv.next.i = add nuw nsw i64 %indvars.iv.i, 1
  %10 = sext i32 %.val.i to i64
  %11 = icmp slt i64 %indvars.iv.next.i, %10
  br i1 %11, label %5, label %Vec_PtrFreeData.exit, !llvm.loop !125

Vec_PtrFreeData.exit:                             ; preds = %9, %1
  %12 = getelementptr inbounds nuw i8, ptr %0, i64 72
  %13 = load ptr, ptr %12, align 8, !tbaa !126
  %.not = icmp eq ptr %13, null
  br i1 %.not, label %15, label %14

14:                                               ; preds = %Vec_PtrFreeData.exit
  tail call void @free(ptr noundef nonnull %13) #26
  store ptr null, ptr %12, align 8, !tbaa !126
  br label %15

15:                                               ; preds = %Vec_PtrFreeData.exit, %14
  %16 = getelementptr inbounds nuw i8, ptr %0, i64 104
  %17 = load ptr, ptr %16, align 8, !tbaa !127
  %.not39 = icmp eq ptr %17, null
  br i1 %.not39, label %19, label %18

18:                                               ; preds = %15
  tail call void @free(ptr noundef nonnull %17) #26
  store ptr null, ptr %16, align 8, !tbaa !127
  br label %19

19:                                               ; preds = %15, %18
  %20 = getelementptr inbounds nuw i8, ptr %0, i64 120
  %21 = load ptr, ptr %20, align 8, !tbaa !128
  %.not40 = icmp eq ptr %21, null
  br i1 %.not40, label %23, label %22

22:                                               ; preds = %19
  tail call void @free(ptr noundef nonnull %21) #26
  store ptr null, ptr %20, align 8, !tbaa !128
  br label %23

23:                                               ; preds = %19, %22
  %24 = getelementptr inbounds nuw i8, ptr %0, i64 136
  %25 = load ptr, ptr %24, align 8, !tbaa !129
  %.not41 = icmp eq ptr %25, null
  br i1 %.not41, label %27, label %26

26:                                               ; preds = %23
  tail call void @free(ptr noundef nonnull %25) #26
  store ptr null, ptr %24, align 8, !tbaa !129
  br label %27

27:                                               ; preds = %23, %26
  %28 = getelementptr inbounds nuw i8, ptr %0, i64 88
  %29 = load ptr, ptr %28, align 8, !tbaa !130
  %.not42 = icmp eq ptr %29, null
  br i1 %.not42, label %31, label %30

30:                                               ; preds = %27
  tail call void @free(ptr noundef nonnull %29) #26
  store ptr null, ptr %28, align 8, !tbaa !130
  br label %31

31:                                               ; preds = %27, %30
  %32 = getelementptr inbounds nuw i8, ptr %0, i64 152
  %33 = load ptr, ptr %32, align 8, !tbaa !131
  %.not43 = icmp eq ptr %33, null
  br i1 %.not43, label %35, label %34

34:                                               ; preds = %31
  tail call void @free(ptr noundef nonnull %33) #26
  store ptr null, ptr %32, align 8, !tbaa !131
  br label %35

35:                                               ; preds = %31, %34
  %36 = getelementptr inbounds nuw i8, ptr %0, i64 168
  %37 = load ptr, ptr %36, align 8, !tbaa !132
  %.not44 = icmp eq ptr %37, null
  br i1 %.not44, label %39, label %38

38:                                               ; preds = %35
  tail call void @free(ptr noundef nonnull %37) #26
  store ptr null, ptr %36, align 8, !tbaa !132
  br label %39

39:                                               ; preds = %35, %38
  %40 = getelementptr inbounds nuw i8, ptr %0, i64 184
  %41 = load ptr, ptr %40, align 8, !tbaa !133
  %.not45 = icmp eq ptr %41, null
  br i1 %.not45, label %43, label %42

42:                                               ; preds = %39
  tail call void @free(ptr noundef nonnull %41) #26
  store ptr null, ptr %40, align 8, !tbaa !133
  br label %43

43:                                               ; preds = %39, %42
  %44 = getelementptr inbounds nuw i8, ptr %0, i64 56
  %45 = load ptr, ptr %44, align 8, !tbaa !105
  %.not46 = icmp eq ptr %45, null
  br i1 %.not46, label %47, label %46

46:                                               ; preds = %43
  tail call void @free(ptr noundef nonnull %45) #26
  br label %47

47:                                               ; preds = %43, %46
  tail call void @free(ptr noundef nonnull %0) #26
  ret void
}